
bin/firmware.elf:     file format elf32-littleriscv


Disassembly of section .init:

00000000 <jump_reset>:
   0:	1480006f          	j	148 <reset_handler>

00000004 <init_data>:
   4:	00000013 00000013 00000013 00000013     ................
  14:	00000013 00000013 00000013 00000013     ................
  24:	00000013 00000013 00000013 00000013     ................
  34:	00100073                                s...

Disassembly of section .text:

00000134 <main>:
  //while(1) {
  //  PIN_toggle(PIN_LED);                          // toggle LED
  //  DLY_ms(100);                                  // wait a bit
  //}
  //var_a = 2;
  var_b = 4321;
 134:	6785                	lui	a5,0x1
 136:	0e178793          	addi	a5,a5,225 # 10e1 <main.cxx.5599c29c+0xe92>
 13a:	20000737          	lui	a4,0x20000
 13e:	00f72023          	sw	a5,0(a4) # 20000000 <_ZZ4mainE5var_b>
  return 0;
}
 142:	4501                	li	a0,0
 144:	8082                	ret

00000146 <ADC1_2_IRQHandler>:
 146:	a001                	j	146 <ADC1_2_IRQHandler>

00000148 <reset_handler>:
 148:	13400793          	li	a5,308
 14c:	20000197          	auipc	gp,0x20000
 150:	6b418193          	addi	gp,gp,1716 # 20000800 <__global_pointer$>
 154:	20002117          	auipc	sp,0x20002
 158:	6ac10113          	addi	sp,sp,1708 # 20002800 <_eusrstack>
 15c:	457d                	li	a0,31
 15e:	bc051073          	csrw	0xbc0,a0
 162:	08800513          	li	a0,136
 166:	30051073          	csrw	mstatus,a0
 16a:	458d                	li	a1,3
 16c:	80459073          	csrw	0x804,a1
 170:	03800513          	li	a0,56
 174:	8d4d                	or	a0,a0,a1
 176:	30551073          	csrw	mtvec,a0
 17a:	34179073          	csrw	mepc,a5
 17e:	20000737          	lui	a4,0x20000
 182:	00070613          	mv	a2,a4
 186:	80818793          	addi	a5,gp,-2040 # 20000008 <_edata>
 18a:	02f67563          	bgeu	a2,a5,1b4 <reset_handler+0x6c>
 18e:	fff78693          	addi	a3,a5,-1
 192:	8e91                	sub	a3,a3,a2
 194:	9af1                	andi	a3,a3,-4
 196:	20400613          	li	a2,516
 19a:	0691                	addi	a3,a3,4
 19c:	96b2                	add	a3,a3,a2
 19e:	00070713          	mv	a4,a4
 1a2:	20400793          	li	a5,516
 1a6:	4390                	lw	a2,0(a5)
 1a8:	0791                	addi	a5,a5,4
 1aa:	0711                	addi	a4,a4,4 # 20000004 <_ZZ4mainE5var_b+0x4>
 1ac:	fec72e23          	sw	a2,-4(a4)
 1b0:	fed79be3          	bne	a5,a3,1a6 <reset_handler+0x5e>
 1b4:	20400793          	li	a5,516
 1b8:	20400713          	li	a4,516
 1bc:	40e78933          	sub	s2,a5,a4
 1c0:	40295913          	srai	s2,s2,0x2
 1c4:	00e78b63          	beq	a5,a4,1da <reset_handler+0x92>
 1c8:	20400413          	li	s0,516
 1cc:	4481                	li	s1,0
 1ce:	401c                	lw	a5,0(s0)
 1d0:	0485                	addi	s1,s1,1
 1d2:	0411                	addi	s0,s0,4
 1d4:	9782                	jalr	a5
 1d6:	ff24ece3          	bltu	s1,s2,1ce <reset_handler+0x86>
 1da:	20400793          	li	a5,516
 1de:	20400713          	li	a4,516
 1e2:	40e78933          	sub	s2,a5,a4
 1e6:	40295913          	srai	s2,s2,0x2
 1ea:	00e78b63          	beq	a5,a4,200 <reset_handler+0xb8>
 1ee:	20400413          	li	s0,516
 1f2:	4481                	li	s1,0
 1f4:	401c                	lw	a5,0(s0)
 1f6:	0485                	addi	s1,s1,1
 1f8:	0411                	addi	s0,s0,4
 1fa:	9782                	jalr	a5
 1fc:	ff24ece3          	bltu	s1,s2,1f4 <reset_handler+0xac>
 200:	30200073          	mret
